; ModuleID = '31/1784.c'
source_filename = "31/1784.c"
target datalayout = "e-m:e-p270:32:32-p271:32:32-p272:64:64-i64:64-f80:128-n8:16:32:64-S128"
target triple = "x86_64-pc-linux-gnu"

%struct.student = type { %struct.student*, [10 x i8], [20 x i8], i8, i32, [10 x i8], [20 x i8], %struct.student* }

@n = common dso_local global i32 0, align 4
@.str = private unnamed_addr constant [18 x i8] c"%s %s %c %d %s %s\00", align 1
@.str.1 = private unnamed_addr constant [19 x i8] c"%s %s %c %d %s %s\0A\00", align 1

; Function Attrs: noinline nounwind uwtable
define dso_local %struct.student* @creat() #0 {
  %1 = alloca %struct.student*, align 8
  %2 = alloca %struct.student*, align 8
  store i32 0, i32* @n, align 4
  %3 = call noalias i8* @malloc(i64 100) #3
  %4 = bitcast i8* %3 to %struct.student*
  store %struct.student* %4, %struct.student** %2, align 8
  store %struct.student* %4, %struct.student** %1, align 8
  %5 = load %struct.student*, %struct.student** %1, align 8
  %6 = getelementptr inbounds %struct.student, %struct.student* %5, i32 0, i32 1
  %7 = getelementptr inbounds [10 x i8], [10 x i8]* %6, i64 0, i64 0
  %8 = load %struct.student*, %struct.student** %1, align 8
  %9 = getelementptr inbounds %struct.student, %struct.student* %8, i32 0, i32 2
  %10 = getelementptr inbounds [20 x i8], [20 x i8]* %9, i64 0, i64 0
  %11 = load %struct.student*, %struct.student** %1, align 8
  %12 = getelementptr inbounds %struct.student, %struct.student* %11, i32 0, i32 3
  %13 = load %struct.student*, %struct.student** %1, align 8
  %14 = getelementptr inbounds %struct.student, %struct.student* %13, i32 0, i32 4
  %15 = load %struct.student*, %struct.student** %1, align 8
  %16 = getelementptr inbounds %struct.student, %struct.student* %15, i32 0, i32 5
  %17 = getelementptr inbounds [10 x i8], [10 x i8]* %16, i64 0, i64 0
  %18 = load %struct.student*, %struct.student** %1, align 8
  %19 = getelementptr inbounds %struct.student, %struct.student* %18, i32 0, i32 6
  %20 = getelementptr inbounds [20 x i8], [20 x i8]* %19, i64 0, i64 0
  %21 = call i32 (i8*, ...) @__isoc99_scanf(i8* getelementptr inbounds ([18 x i8], [18 x i8]* @.str, i64 0, i64 0), i8* %7, i8* %10, i8* %12, i32* %14, i8* %17, i8* %20)
  br label %22

22:                                               ; preds = %44, %0
  %23 = load %struct.student*, %struct.student** %1, align 8
  %24 = getelementptr inbounds %struct.student, %struct.student* %23, i32 0, i32 1
  %25 = getelementptr inbounds [10 x i8], [10 x i8]* %24, i64 0, i64 0
  %26 = load i8, i8* %25, align 8
  %27 = sext i8 %26 to i32
  %28 = icmp ne i32 %27, 101
  br i1 %28, label %29, label %65

29:                                               ; preds = %22
  %30 = load i32, i32* @n, align 4
  %31 = add nsw i32 %30, 1
  store i32 %31, i32* @n, align 4
  %32 = load i32, i32* @n, align 4
  %33 = icmp eq i32 %32, 1
  br i1 %33, label %34, label %37

34:                                               ; preds = %29
  %35 = load %struct.student*, %struct.student** %1, align 8
  %36 = getelementptr inbounds %struct.student, %struct.student* %35, i32 0, i32 0
  store %struct.student* null, %struct.student** %36, align 8
  br label %44

37:                                               ; preds = %29
  %38 = load %struct.student*, %struct.student** %1, align 8
  %39 = load %struct.student*, %struct.student** %2, align 8
  %40 = getelementptr inbounds %struct.student, %struct.student* %39, i32 0, i32 7
  store %struct.student* %38, %struct.student** %40, align 8
  %41 = load %struct.student*, %struct.student** %2, align 8
  %42 = load %struct.student*, %struct.student** %1, align 8
  %43 = getelementptr inbounds %struct.student, %struct.student* %42, i32 0, i32 0
  store %struct.student* %41, %struct.student** %43, align 8
  br label %44

44:                                               ; preds = %37, %34
  %45 = load %struct.student*, %struct.student** %1, align 8
  store %struct.student* %45, %struct.student** %2, align 8
  %46 = call noalias i8* @malloc(i64 100) #3
  %47 = bitcast i8* %46 to %struct.student*
  store %struct.student* %47, %struct.student** %1, align 8
  %48 = load %struct.student*, %struct.student** %1, align 8
  %49 = getelementptr inbounds %struct.student, %struct.student* %48, i32 0, i32 1
  %50 = getelementptr inbounds [10 x i8], [10 x i8]* %49, i64 0, i64 0
  %51 = load %struct.student*, %struct.student** %1, align 8
  %52 = getelementptr inbounds %struct.student, %struct.student* %51, i32 0, i32 2
  %53 = getelementptr inbounds [20 x i8], [20 x i8]* %52, i64 0, i64 0
  %54 = load %struct.student*, %struct.student** %1, align 8
  %55 = getelementptr inbounds %struct.student, %struct.student* %54, i32 0, i32 3
  %56 = load %struct.student*, %struct.student** %1, align 8
  %57 = getelementptr inbounds %struct.student, %struct.student* %56, i32 0, i32 4
  %58 = load %struct.student*, %struct.student** %1, align 8
  %59 = getelementptr inbounds %struct.student, %struct.student* %58, i32 0, i32 5
  %60 = getelementptr inbounds [10 x i8], [10 x i8]* %59, i64 0, i64 0
  %61 = load %struct.student*, %struct.student** %1, align 8
  %62 = getelementptr inbounds %struct.student, %struct.student* %61, i32 0, i32 6
  %63 = getelementptr inbounds [20 x i8], [20 x i8]* %62, i64 0, i64 0
  %64 = call i32 (i8*, ...) @__isoc99_scanf(i8* getelementptr inbounds ([18 x i8], [18 x i8]* @.str, i64 0, i64 0), i8* %50, i8* %53, i8* %55, i32* %57, i8* %60, i8* %63)
  br label %22

65:                                               ; preds = %22
  %66 = load %struct.student*, %struct.student** %2, align 8
  %67 = getelementptr inbounds %struct.student, %struct.student* %66, i32 0, i32 7
  store %struct.student* null, %struct.student** %67, align 8
  %68 = load %struct.student*, %struct.student** %2, align 8
  ret %struct.student* %68
}

; Function Attrs: nounwind
declare dso_local noalias i8* @malloc(i64) #1

declare dso_local i32 @__isoc99_scanf(i8*, ...) #2

; Function Attrs: noinline nounwind uwtable
define dso_local i32 @main() #0 {
  %1 = alloca i32, align 4
  %2 = alloca %struct.student*, align 8
  store i32 0, i32* %1, align 4
  %3 = call %struct.student* @creat()
  store %struct.student* %3, %struct.student** %2, align 8
  br label %4

4:                                                ; preds = %28, %0
  %5 = load %struct.student*, %struct.student** %2, align 8
  %6 = getelementptr inbounds %struct.student, %struct.student* %5, i32 0, i32 1
  %7 = getelementptr inbounds [10 x i8], [10 x i8]* %6, i64 0, i64 0
  %8 = load %struct.student*, %struct.student** %2, align 8
  %9 = getelementptr inbounds %struct.student, %struct.student* %8, i32 0, i32 2
  %10 = getelementptr inbounds [20 x i8], [20 x i8]* %9, i64 0, i64 0
  %11 = load %struct.student*, %struct.student** %2, align 8
  %12 = getelementptr inbounds %struct.student, %struct.student* %11, i32 0, i32 3
  %13 = load i8, i8* %12, align 2
  %14 = sext i8 %13 to i32
  %15 = load %struct.student*, %struct.student** %2, align 8
  %16 = getelementptr inbounds %struct.student, %struct.student* %15, i32 0, i32 4
  %17 = load i32, i32* %16, align 8
  %18 = load %struct.student*, %struct.student** %2, align 8
  %19 = getelementptr inbounds %struct.student, %struct.student* %18, i32 0, i32 5
  %20 = getelementptr inbounds [10 x i8], [10 x i8]* %19, i64 0, i64 0
  %21 = load %struct.student*, %struct.student** %2, align 8
  %22 = getelementptr inbounds %struct.student, %struct.student* %21, i32 0, i32 6
  %23 = getelementptr inbounds [20 x i8], [20 x i8]* %22, i64 0, i64 0
  %24 = call i32 (i8*, ...) @printf(i8* getelementptr inbounds ([19 x i8], [19 x i8]* @.str.1, i64 0, i64 0), i8* %7, i8* %10, i32 %14, i32 %17, i8* %20, i8* %23)
  %25 = load %struct.student*, %struct.student** %2, align 8
  %26 = getelementptr inbounds %struct.student, %struct.student* %25, i32 0, i32 0
  %27 = load %struct.student*, %struct.student** %26, align 8
  store %struct.student* %27, %struct.student** %2, align 8
  br label %28

28:                                               ; preds = %4
  %29 = load %struct.student*, %struct.student** %2, align 8
  %30 = icmp ne %struct.student* %29, null
  br i1 %30, label %4, label %31

31:                                               ; preds = %28
  ret i32 0
}

declare dso_local i32 @printf(i8*, ...) #2


!llvm.module.flags = !{!0}
!llvm.ident = !{!1}

!0 = !{i32 1, !"wchar_size", i32 4}
!1 = !{!"clang version 10.0.0-4ubuntu1 "}
